; ModuleID = '43/295.c'
source_filename = "43/295.c"
target datalayout = "e-m:e-p270:32:32-p271:32:32-p272:64:64-i64:64-f80:128-n8:16:32:64-S128"
target triple = "x86_64-pc-linux-gnu"

@.str = private unnamed_addr constant [3 x i8] c"%d\00", align 1
@.str.1 = private unnamed_addr constant [7 x i8] c"%d %d\0A\00", align 1

; Function Attrs: noinline nounwind uwtable
define dso_local i32 @main() #0 {
  %1 = alloca i32, align 4
  %2 = alloca i32, align 4
  %3 = alloca i32, align 4
  %4 = alloca i32, align 4
  %5 = alloca i32, align 4
  %6 = alloca i32, align 4
  store i32 0, i32* %1, align 4
  %7 = call i32 (i8*, ...) @__isoc99_scanf(i8* getelementptr inbounds ([3 x i8], [3 x i8]* @.str, i64 0, i64 0), i32* %2)
  store i32 3, i32* %3, align 4
  br label %8

8:                                                ; preds = %31, %0
  %9 = load i32, i32* %3, align 4
  %10 = load i32, i32* %2, align 4
  %11 = sdiv i32 %10, 2
  %12 = icmp sle i32 %9, %11
  br i1 %12, label %13, label %34

13:                                               ; preds = %8
  %14 = load i32, i32* %2, align 4
  %15 = load i32, i32* %3, align 4
  %16 = sub nsw i32 %14, %15
  store i32 %16, i32* %4, align 4
  %17 = load i32, i32* %3, align 4
  %18 = call i32 @isprime(i32 %17)
  store i32 %18, i32* %5, align 4
  %19 = load i32, i32* %4, align 4
  %20 = call i32 @isprime(i32 %19)
  store i32 %20, i32* %6, align 4
  %21 = load i32, i32* %5, align 4
  %22 = icmp ne i32 %21, 0
  br i1 %22, label %23, label %30

23:                                               ; preds = %13
  %24 = load i32, i32* %6, align 4
  %25 = icmp ne i32 %24, 0
  br i1 %25, label %26, label %30

26:                                               ; preds = %23
  %27 = load i32, i32* %3, align 4
  %28 = load i32, i32* %4, align 4
  %29 = call i32 (i8*, ...) @printf(i8* getelementptr inbounds ([7 x i8], [7 x i8]* @.str.1, i64 0, i64 0), i32 %27, i32 %28)
  br label %30

30:                                               ; preds = %26, %23, %13
  br label %31

31:                                               ; preds = %30
  %32 = load i32, i32* %3, align 4
  %33 = add nsw i32 %32, 2
  store i32 %33, i32* %3, align 4
  br label %8

34:                                               ; preds = %8
  ret i32 0
}

declare dso_local i32 @__isoc99_scanf(i8*, ...) #1

; Function Attrs: noinline nounwind uwtable
define dso_local i32 @isprime(i32 %0) #0 {
  %2 = alloca i32, align 4
  %3 = alloca i32, align 4
  %4 = alloca i32, align 4
  %5 = alloca i32, align 4
  store i32 %0, i32* %3, align 4
  store i32 1, i32* %5, align 4
  %6 = load i32, i32* %3, align 4
  %7 = srem i32 %6, 2
  %8 = icmp eq i32 %7, 0
  br i1 %8, label %9, label %16

9:                                                ; preds = %1
  %10 = load i32, i32* %3, align 4
  %11 = icmp eq i32 %10, 2
  br i1 %11, label %12, label %14

12:                                               ; preds = %9
  %13 = load i32, i32* %5, align 4
  store i32 %13, i32* %2, align 4
  br label %33

14:                                               ; preds = %9
  store i32 0, i32* %5, align 4
  %15 = load i32, i32* %5, align 4
  store i32 %15, i32* %2, align 4
  br label %33

16:                                               ; preds = %1
  store i32 3, i32* %4, align 4
  br label %17

17:                                               ; preds = %28, %16
  %18 = load i32, i32* %4, align 4
  %19 = load i32, i32* %3, align 4
  %20 = icmp slt i32 %18, %19
  br i1 %20, label %21, label %31

21:                                               ; preds = %17
  %22 = load i32, i32* %3, align 4
  %23 = load i32, i32* %4, align 4
  %24 = srem i32 %22, %23
  %25 = icmp eq i32 %24, 0
  br i1 %25, label %26, label %27

26:                                               ; preds = %21
  store i32 0, i32* %5, align 4
  br label %31

27:                                               ; preds = %21
  br label %28

28:                                               ; preds = %27
  %29 = load i32, i32* %4, align 4
  %30 = add nsw i32 %29, 2
  store i32 %30, i32* %4, align 4
  br label %17

31:                                               ; preds = %26, %17
  %32 = load i32, i32* %5, align 4
  store i32 %32, i32* %2, align 4
  br label %33

33:                                               ; preds = %31, %14, %12
  %34 = load i32, i32* %2, align 4
  ret i32 %34
}

declare dso_local i32 @printf(i8*, ...) #1


!llvm.module.flags = !{!0}
!llvm.ident = !{!1}

!0 = !{i32 1, !"wchar_size", i32 4}
!1 = !{!"clang version 10.0.0-4ubuntu1 "}
